target datalayout = "e-m:e-p270:32:32-p271:32:32-p272:64:64-i64:64-i128:128-f80:128-n8:16:32:64-S128"
target triple = "x86_64-pc-linux-gnu"

%union.pthread_mutex_t = type { %struct.__pthread_mutex_s }
%struct.__pthread_mutex_s = type { i32, i32, i32, i32, i32, i16, i16, %struct.__pthread_internal_list }
%struct.__pthread_internal_list = type { ptr, ptr }
%struct.settings = type { i64, i32, i32, i32, ptr, i32, i32, i32, ptr, ptr, i32, double, i32, i32, i32, i8, i32, i32, i8, i32, i32, i32, i32, i32, i32, i8, i8, i8, i8, i8, i8, i8, i32, i32, double, double, i32, i32, i8, i32, i8, i8, ptr, i32, i32, i32, i32, double, double, i32, i8, i32, i32, i32, i32, i32, i8, i8, i8, ptr, i32, i32, i32, i32, i32, i32, i32, i32, i32, i32, double, i8, i32, i32, ptr, i32 }
%struct._logger = type { ptr, ptr, %union.pthread_mutex_t, i64, i64, i64, i16, i16, i16, ptr, ptr }

@logger_stack_lock = dso_local global %union.pthread_mutex_t zeroinitializer, align 8
@logger_stack_head = internal global ptr null, align 8
@logger_stack_tail = internal global ptr null, align 8
@logger_key = dso_local global i32 0, align 4
@settings = external global %struct.settings, align 8
@logger_count = internal global i32 0, align 4

; Function Attrs: nounwind uwtable
define internal void @logger_link_q(ptr noundef %0) #0 {
  %2 = alloca ptr, align 8
  store ptr %0, ptr %2, align 8, !tbaa !8
  %3 = call i32 @pthread_mutex_lock(ptr noundef @logger_stack_lock) #11
  %4 = load ptr, ptr %2, align 8, !tbaa !8
  %5 = getelementptr inbounds nuw %struct._logger, ptr %4, i32 0, i32 0
  store ptr null, ptr %5, align 8, !tbaa !26
  %6 = load ptr, ptr @logger_stack_head, align 8, !tbaa !8
  %7 = load ptr, ptr %2, align 8, !tbaa !8
  %8 = getelementptr inbounds nuw %struct._logger, ptr %7, i32 0, i32 1
  store ptr %6, ptr %8, align 8, !tbaa !27
  %9 = load ptr, ptr %2, align 8, !tbaa !8
  %10 = getelementptr inbounds nuw %struct._logger, ptr %9, i32 0, i32 1
  %11 = load ptr, ptr %10, align 8, !tbaa !27
  %12 = icmp ne ptr %11, null
  br i1 %12, label %13, label %19

13:                                               ; preds = %1
  %14 = load ptr, ptr %2, align 8, !tbaa !8
  %15 = load ptr, ptr %2, align 8, !tbaa !8
  %16 = getelementptr inbounds nuw %struct._logger, ptr %15, i32 0, i32 1
  %17 = load ptr, ptr %16, align 8, !tbaa !27
  %18 = getelementptr inbounds nuw %struct._logger, ptr %17, i32 0, i32 0
  store ptr %14, ptr %18, align 8, !tbaa !26
  br label %19

19:                                               ; preds = %13, %1
  %20 = load ptr, ptr %2, align 8, !tbaa !8
  store ptr %20, ptr @logger_stack_head, align 8, !tbaa !8
  %21 = load ptr, ptr @logger_stack_tail, align 8, !tbaa !8
  %22 = icmp eq ptr %21, null
  br i1 %22, label %23, label %25

23:                                               ; preds = %19
  %24 = load ptr, ptr %2, align 8, !tbaa !8
  store ptr %24, ptr @logger_stack_tail, align 8, !tbaa !8
  br label %25

25:                                               ; preds = %23, %19
  %26 = load i32, ptr @logger_count, align 4, !tbaa !11
  %27 = add i32 %26, 1
  store i32 %27, ptr @logger_count, align 4, !tbaa !11
  %28 = call i32 @pthread_mutex_unlock(ptr noundef @logger_stack_lock) #11
  ret void
}

; Function Attrs: nounwind uwtable
define dso_local ptr @logger_create() #0 {
  %1 = alloca ptr, align 8
  %2 = alloca ptr, align 8
  %3 = alloca i32, align 4
  call void @llvm.lifetime.start.p0(i64 8, ptr %2) #11
  %4 = call noalias ptr @calloc(i64 noundef 1, i64 noundef 104) #13
  store ptr %4, ptr %2, align 8, !tbaa !8
  %5 = load ptr, ptr %2, align 8, !tbaa !8
  %6 = icmp eq ptr %5, null
  br i1 %6, label %7, label %8

7:                                                ; preds = %0
  store ptr null, ptr %1, align 8
  store i32 1, ptr %3, align 4
  br label %30

8:                                                ; preds = %0
  %9 = load i32, ptr getelementptr inbounds nuw (%struct.settings, ptr @settings, i32 0, i32 54), align 4, !tbaa !15
  %10 = call ptr @bipbuf_new(i32 noundef %9)
  %11 = load ptr, ptr %2, align 8, !tbaa !8
  %12 = getelementptr inbounds nuw %struct._logger, ptr %11, i32 0, i32 9
  store ptr %10, ptr %12, align 8, !tbaa !21
  %13 = load ptr, ptr %2, align 8, !tbaa !8
  %14 = getelementptr inbounds nuw %struct._logger, ptr %13, i32 0, i32 9
  %15 = load ptr, ptr %14, align 8, !tbaa !21
  %16 = icmp eq ptr %15, null
  br i1 %16, label %17, label %19

17:                                               ; preds = %8
  %18 = load ptr, ptr %2, align 8, !tbaa !8
  call void @free(ptr noundef %18) #11
  store ptr null, ptr %1, align 8
  store i32 1, ptr %3, align 4
  br label %30

19:                                               ; preds = %8
  %20 = load ptr, ptr %2, align 8, !tbaa !8
  %21 = getelementptr inbounds nuw %struct._logger, ptr %20, i32 0, i32 10
  store ptr @default_entries, ptr %21, align 8, !tbaa !25
  %22 = load ptr, ptr %2, align 8, !tbaa !8
  %23 = getelementptr inbounds nuw %struct._logger, ptr %22, i32 0, i32 2
  %24 = call i32 @pthread_mutex_init(ptr noundef %23, ptr noundef null) #11
  %25 = load i32, ptr @logger_key, align 4, !tbaa !11
  %26 = load ptr, ptr %2, align 8, !tbaa !8
  %27 = call i32 @pthread_setspecific(i32 noundef %25, ptr noundef %26) #11
  %28 = load ptr, ptr %2, align 8, !tbaa !8
  call void @logger_link_q(ptr noundef %28)
  %29 = load ptr, ptr %2, align 8, !tbaa !8
  store ptr %29, ptr %1, align 8
  store i32 1, ptr %3, align 4
  br label %30

30:                                               ; preds = %19, %17, %7
  call void @llvm.lifetime.end.p0(i64 8, ptr %2) #11
  %31 = load ptr, ptr %1, align 8
  ret ptr %31
}