; Function Attrs: nounwind uwtable
define dso_local noundef ptr @logger_create() local_unnamed_addr #1 {
  %1 = tail call noalias dereferenceable_or_null(104) ptr @calloc(i64 noundef 1, i64 noundef 104) #21
  %2 = icmp eq ptr %1, null
  br i1 %2, label %26, label %3

3:                                                ; preds = %0
  %4 = load i32, ptr getelementptr inbounds nuw (i8, ptr @settings, i64 252), align 4, !tbaa !15
  %5 = tail call ptr @bipbuf_new(i32 noundef %4) #18
  %6 = getelementptr inbounds nuw i8, ptr %1, i64 88
  store ptr %5, ptr %6, align 8, !tbaa !21
  %7 = icmp eq ptr %5, null
  br i1 %7, label %8, label %9

8:                                                ; preds = %3
  tail call void @free(ptr noundef nonnull %1) #18
  br label %26

9:                                                ; preds = %3
  %10 = getelementptr inbounds nuw i8, ptr %1, i64 96
  store ptr @default_entries, ptr %10, align 8, !tbaa !25
  %11 = getelementptr inbounds nuw i8, ptr %1, i64 16
  %12 = tail call i32 @pthread_mutex_init(ptr noundef nonnull %11, ptr noundef null) #18
  %13 = load i32, ptr @logger_key, align 4, !tbaa !9
  %14 = tail call i32 @pthread_setspecific(i32 noundef %13, ptr noundef nonnull %1) #18
  %15 = tail call i32 @pthread_mutex_lock(ptr noundef nonnull @logger_stack_lock) #18
  store ptr null, ptr %1, align 8, !tbaa !26
  %16 = load ptr, ptr @logger_stack_head, align 8, !tbaa !4
  %17 = getelementptr inbounds nuw i8, ptr %1, i64 8
  store ptr %16, ptr %17, align 8, !tbaa !27
  %.not.i = icmp eq ptr %16, null
  br i1 %.not.i, label %19, label %18

18:                                               ; preds = %9
  store ptr %1, ptr %16, align 8, !tbaa !26
  br label %19

19:                                               ; preds = %18, %9
  store ptr %1, ptr @logger_stack_head, align 8, !tbaa !4
  %20 = load ptr, ptr @logger_stack_tail, align 8, !tbaa !4
  %21 = icmp eq ptr %20, null
  br i1 %21, label %22, label %logger_link_q.exit

22:                                               ; preds = %19
  store ptr %1, ptr @logger_stack_tail, align 8, !tbaa !4
  br label %logger_link_q.exit

logger_link_q.exit:                               ; preds = %19, %22
  %23 = load i32, ptr @logger_count, align 4, !tbaa !9
  %24 = add i32 %23, 1
  store i32 %24, ptr @logger_count, align 4, !tbaa !9
  %25 = tail call i32 @pthread_mutex_unlock(ptr noundef nonnull @logger_stack_lock) #18
  br label %26

26:                                               ; preds = %0, %logger_link_q.exit, %8
  %.0 = phi ptr [ null, %8 ], [ %1, %logger_link_q.exit ], [ null, %0 ]
  ret ptr %.0
}